; Function Attrs: mustprogress nounwind uwtable
define hidden noundef ptr @_ZN6hermes5irgen11ESTreeIRGen15genSequenceExprEPNS_6ESTree22SequenceExpressionNodeE(ptr noundef nonnull align 8 dereferenceable(200) %this, ptr noundef readonly %Sq) local_unnamed_addr #0 align 2 {
entry:
  %Builder = getelementptr inbounds i8, ptr %this, i64 8
  %call = tail call noundef ptr @_ZN6hermes9IRBuilder19getLiteralUndefinedEv(ptr noundef nonnull align 8 dereferenceable(40) %Builder) #16
  %_expressions = getelementptr inbounds i8, ptr %Sq, i64 48
  %Next.i.i.i.i = getelementptr inbounds i8, ptr %Sq, i64 56
  %__begin2.sroa.0.04 = load ptr, ptr %Next.i.i.i.i, align 8
  %cmp.i.not5 = icmp eq ptr %__begin2.sroa.0.04, %_expressions
  br i1 %cmp.i.not5, label %for.end, label %for.body

for.body:                                         ; preds = %entry, %for.body
  %__begin2.sroa.0.06 = phi ptr [ %__begin2.sroa.0.0, %for.body ], [ %__begin2.sroa.0.04, %entry ]
  %call8 = tail call noundef ptr @_ZN6hermes5irgen11ESTreeIRGen13genExpressionEPNS_6ESTree4NodeENS_10IdentifierE(ptr noundef nonnull align 8 dereferenceable(200) %this, ptr noundef nonnull %__begin2.sroa.0.06, ptr null)
  %Next.i.i.i = getelementptr inbounds i8, ptr %__begin2.sroa.0.06, i64 8
  %__begin2.sroa.0.0 = load ptr, ptr %Next.i.i.i, align 8
  %cmp.i.not = icmp eq ptr %__begin2.sroa.0.0, %_expressions
  br i1 %cmp.i.not, label %for.end, label %for.body

for.end:                                          ; preds = %for.body, %entry
  %result.0.lcssa = phi ptr [ %call, %entry ], [ %call8, %for.body ]
  ret ptr %result.0.lcssa
}